#include <math.h>
#include <stdio.h>
#include <stdlib.h>
#include <string.h>


int main() 
{ 
    double a,b,c,d,s,S,m,theta,alpha; 
    scanf("%lf%lf%lf%lf%lf",&a,&b,&c,&d,&theta); 
    s=(a+b+c+d)/2; 
	alpha=theta/180*3.1415926;
	m=(s-a)*(s-b)*(s-c)*(s-d)-a*b*c*d*pow(cos(alpha/2),2);
	if(m<0)
		printf("Invalid input\n");
	else
		printf("%.4lf",sqrt(m));
    return 0;  
}